; Function Attrs: mustprogress uwtable
define void @_ZN7rocksdb19EncodeUniqueIdBytesB5cxx11ENS_11UniqueIdPtrE(ptr dead_on_unwind noalias nonnull writable sret(%"class.std::__cxx11::basic_string") align 8 %0, ptr readonly captures(none) %1, i8 %2) local_unnamed_addr #0 personality ptr @__gxx_personality_v0 {
_ZNSt7__cxx1112basic_stringIcSt11char_traitsIcESaIcEEC2IS3_EEmcRKS3_.exit:
  %3 = trunc i8 %2 to i1
  %4 = select i1 %3, i64 24, i64 16
  %5 = getelementptr inbounds nuw i8, ptr %0, i64 16
  store ptr %5, ptr %0, align 8, !tbaa !4
  tail call void @_ZNSt7__cxx1112basic_stringIcSt11char_traitsIcESaIcEE12_M_constructEmc(ptr noundef nonnull align 8 dereferenceable(32) %0, i64 noundef %4, i8 noundef signext 0)
  %6 = load ptr, ptr %0, align 8, !tbaa !10
  %7 = load i64, ptr %1, align 8, !tbaa !20
  store i64 %7, ptr %6, align 1
  %8 = load ptr, ptr %0, align 8, !tbaa !10
  %9 = getelementptr inbounds nuw i8, ptr %8, i64 8
  %10 = getelementptr inbounds nuw i8, ptr %1, i64 8
  %11 = load i64, ptr %10, align 8, !tbaa !20
  store i64 %11, ptr %9, align 1
  br i1 %3, label %12, label %17

12:                                               ; preds = %_ZNSt7__cxx1112basic_stringIcSt11char_traitsIcESaIcEEC2IS3_EEmcRKS3_.exit
  %13 = load ptr, ptr %0, align 8, !tbaa !10
  %14 = getelementptr inbounds nuw i8, ptr %13, i64 16
  %15 = getelementptr inbounds nuw i8, ptr %1, i64 16
  %16 = load i64, ptr %15, align 8, !tbaa !20
  store i64 %16, ptr %14, align 1
  br label %17

17:                                               ; preds = %_ZNSt7__cxx1112basic_stringIcSt11char_traitsIcESaIcEEC2IS3_EEmcRKS3_.exit, %12
  ret void
}